target datalayout = "e-m:e-p270:32:32-p271:32:32-p272:64:64-i64:64-i128:128-f80:128-n8:16:32:64-S128"
target triple = "x86_64-pc-linux-gnu"

%"class.cv::utils::trace::details::Region" = type <{ ptr, i32, [4 x i8] }>
%"struct.cv::cpu_baseline::NormL2_SIMD.15" = type { i8 }

; Function Attrs: inlinehint mustprogress nounwind uwtable
define linkonce_odr hidden noundef double @_ZNK2cv12cpu_baseline11NormL2_SIMDItdEclEPKti(ptr noundef nonnull align 1 dereferenceable(1) %0, ptr noundef %1, i32 noundef %2) #3 comdat align 2 {
  %4 = alloca ptr, align 8
  %5 = alloca ptr, align 8
  %6 = alloca i32, align 4
  %7 = alloca double, align 8
  %8 = alloca i32, align 4
  %9 = alloca double, align 8
  store ptr %0, ptr %4, align 8, !tbaa !175
  store ptr %1, ptr %5, align 8, !tbaa !13
  store i32 %2, ptr %6, align 4, !tbaa !3
  call void @llvm.lifetime.start.p0(i64 8, ptr %7) #15
  store double 0.000000e+00, ptr %7, align 8, !tbaa !47
  call void @llvm.lifetime.start.p0(i64 4, ptr %8) #15
  store i32 0, ptr %8, align 4, !tbaa !3
  br label %10

10:                                               ; preds = %26, %3
  %11 = load i32, ptr %8, align 4, !tbaa !3
  %12 = load i32, ptr %6, align 4, !tbaa !3
  %13 = icmp slt i32 %11, %12
  br i1 %13, label %15, label %14

14:                                               ; preds = %10
  call void @llvm.lifetime.end.p0(i64 4, ptr %8) #15
  br label %29

15:                                               ; preds = %10
  call void @llvm.lifetime.start.p0(i64 8, ptr %9) #15
  %16 = load ptr, ptr %5, align 8, !tbaa !13
  %17 = load i32, ptr %8, align 4, !tbaa !3
  %18 = sext i32 %17 to i64
  %19 = getelementptr inbounds i16, ptr %16, i64 %18
  %20 = load i16, ptr %19, align 2, !tbaa !101
  %21 = uitofp i16 %20 to double
  store double %21, ptr %9, align 8, !tbaa !47
  %22 = load double, ptr %9, align 8, !tbaa !47
  %23 = load double, ptr %9, align 8, !tbaa !47
  %24 = load double, ptr %7, align 8, !tbaa !47
  %25 = call double @llvm.fmuladd.f64(double %22, double %23, double %24)
  store double %25, ptr %7, align 8, !tbaa !47
  call void @llvm.lifetime.end.p0(i64 8, ptr %9) #15
  br label %26

26:                                               ; preds = %15
  %27 = load i32, ptr %8, align 4, !tbaa !3
  %28 = add nsw i32 %27, 1
  store i32 %28, ptr %8, align 4, !tbaa !3
  br label %10, !llvm.loop !177

29:                                               ; preds = %14
  %30 = load double, ptr %7, align 8, !tbaa !47
  call void @llvm.lifetime.end.p0(i64 8, ptr %7) #15
  ret double %30
}

; Function Attrs: inlinehint mustprogress nounwind uwtable
define linkonce_odr hidden void @_ZN2cv5utils5trace7details6RegionD2Ev(ptr noundef nonnull align 8 dereferenceable(12) %0) unnamed_addr #3 comdat align 2 personality ptr @__gxx_personality_v0 {
  %2 = alloca ptr, align 8
  store ptr %0, ptr %2, align 8, !tbaa !19
  %3 = load ptr, ptr %2, align 8
  %4 = getelementptr inbounds nuw %"class.cv::utils::trace::details::Region", ptr %3, i32 0, i32 1
  %5 = load i32, ptr %4, align 8, !tbaa !21
  %6 = icmp ne i32 %5, 0
  br i1 %6, label %7, label %9

7:                                                ; preds = %1
  invoke void @_ZN2cv5utils5trace7details6Region7destroyEv(ptr noundef nonnull align 8 dereferenceable(12) %3)
          to label %8 unwind label %10

8:                                                ; preds = %7
  br label %9

9:                                                ; preds = %8, %1
  ret void

10:                                               ; preds = %7
  %11 = landingpad { ptr, i32 }
          catch ptr null
  %12 = extractvalue { ptr, i32 } %11, 0
  call void @__clang_call_terminate(ptr %12) #16
  unreachable
}

; Function Attrs: mustprogress uwtable
define linkonce_odr hidden noundef i32 @_ZN2cv12cpu_baseline7normL2_ItdEEiPKT_PKhPT0_ii(ptr noundef %0, ptr noundef %1, ptr noundef %2, i32 noundef %3, i32 noundef %4) #0 comdat {
  %6 = alloca ptr, align 8
  %7 = alloca ptr, align 8
  %8 = alloca ptr, align 8
  %9 = alloca i32, align 4
  %10 = alloca i32, align 4
  %11 = alloca double, align 8
  %12 = alloca %"struct.cv::cpu_baseline::NormL2_SIMD.15", align 1
  %13 = alloca i32, align 4
  %14 = alloca i32, align 4
  %15 = alloca i32, align 4
  %16 = alloca i16, align 2
  store ptr %0, ptr %6, align 8, !tbaa !13
  store ptr %1, ptr %7, align 8, !tbaa !9
  store ptr %2, ptr %8, align 8, !tbaa !17
  store i32 %3, ptr %9, align 4, !tbaa !3
  store i32 %4, ptr %10, align 4, !tbaa !3
  call void @llvm.lifetime.start.p0(i64 8, ptr %11) #15
  %17 = load ptr, ptr %8, align 8, !tbaa !17
  %18 = load double, ptr %17, align 8, !tbaa !47
  store double %18, ptr %11, align 8, !tbaa !47
  %19 = load ptr, ptr %7, align 8, !tbaa !9
  %20 = icmp ne ptr %19, null
  br i1 %20, label %29, label %21

21:                                               ; preds = %5
  call void @llvm.lifetime.start.p0(i64 1, ptr %12) #15
  %22 = load ptr, ptr %6, align 8, !tbaa !13
  %23 = load i32, ptr %9, align 4, !tbaa !3
  %24 = load i32, ptr %10, align 4, !tbaa !3
  %25 = mul nsw i32 %23, %24
  %26 = call noundef double @_ZNK2cv12cpu_baseline11NormL2_SIMDItdEclEPKti(ptr noundef nonnull align 1 dereferenceable(1) %12, ptr noundef %22, i32 noundef %25)
  %27 = load double, ptr %11, align 8, !tbaa !47
  %28 = fadd double %27, %26
  store double %28, ptr %11, align 8, !tbaa !47
  call void @llvm.lifetime.end.p0(i64 1, ptr %12) #15
  br label %74

29:                                               ; preds = %5
  call void @llvm.lifetime.start.p0(i64 4, ptr %13) #15
  store i32 0, ptr %13, align 4, !tbaa !3
  br label %30

30:                                               ; preds = %66, %29
  %31 = load i32, ptr %13, align 4, !tbaa !3
  %32 = load i32, ptr %9, align 4, !tbaa !3
  %33 = icmp slt i32 %31, %32
  br i1 %33, label %35, label %34

34:                                               ; preds = %30
  store i32 2, ptr %14, align 4
  call void @llvm.lifetime.end.p0(i64 4, ptr %13) #15
  br label %73

35:                                               ; preds = %30
  %36 = load ptr, ptr %7, align 8, !tbaa !9
  %37 = load i32, ptr %13, align 4, !tbaa !3
  %38 = sext i32 %37 to i64
  %39 = getelementptr inbounds i8, ptr %36, i64 %38
  %40 = load i8, ptr %39, align 1, !tbaa !24
  %41 = icmp ne i8 %40, 0
  br i1 %41, label %42, label %65

42:                                               ; preds = %35
  call void @llvm.lifetime.start.p0(i64 4, ptr %15) #15
  store i32 0, ptr %15, align 4, !tbaa !3
  br label %43

43:                                               ; preds = %61, %42
  %44 = load i32, ptr %15, align 4, !tbaa !3
  %45 = load i32, ptr %10, align 4, !tbaa !3
  %46 = icmp slt i32 %44, %45
  br i1 %46, label %48, label %47

47:                                               ; preds = %43
  store i32 5, ptr %14, align 4
  call void @llvm.lifetime.end.p0(i64 4, ptr %15) #15
  br label %64

48:                                               ; preds = %43
  call void @llvm.lifetime.start.p0(i64 2, ptr %16) #15
  %49 = load ptr, ptr %6, align 8, !tbaa !13
  %50 = load i32, ptr %15, align 4, !tbaa !3
  %51 = sext i32 %50 to i64
  %52 = getelementptr inbounds i16, ptr %49, i64 %51
  %53 = load i16, ptr %52, align 2, !tbaa !101
  store i16 %53, ptr %16, align 2, !tbaa !101
  %54 = load i16, ptr %16, align 2, !tbaa !101
  %55 = uitofp i16 %54 to double
  %56 = load i16, ptr %16, align 2, !tbaa !101
  %57 = zext i16 %56 to i32
  %58 = sitofp i32 %57 to double
  %59 = load double, ptr %11, align 8, !tbaa !47
  %60 = call double @llvm.fmuladd.f64(double %55, double %58, double %59)
  store double %60, ptr %11, align 8, !tbaa !47
  call void @llvm.lifetime.end.p0(i64 2, ptr %16) #15
  br label %61

61:                                               ; preds = %48
  %62 = load i32, ptr %15, align 4, !tbaa !3
  %63 = add nsw i32 %62, 1
  store i32 %63, ptr %15, align 4, !tbaa !3
  br label %43, !llvm.loop !173

64:                                               ; preds = %47
  br label %65

65:                                               ; preds = %64, %35
  br label %66

66:                                               ; preds = %65
  %67 = load i32, ptr %13, align 4, !tbaa !3
  %68 = add nsw i32 %67, 1
  store i32 %68, ptr %13, align 4, !tbaa !3
  %69 = load i32, ptr %10, align 4, !tbaa !3
  %70 = load ptr, ptr %6, align 8, !tbaa !13
  %71 = sext i32 %69 to i64
  %72 = getelementptr inbounds i16, ptr %70, i64 %71
  store ptr %72, ptr %6, align 8, !tbaa !13
  br label %30, !llvm.loop !174

73:                                               ; preds = %34
  br label %74

74:                                               ; preds = %73, %21
  %75 = load double, ptr %11, align 8, !tbaa !47
  %76 = load ptr, ptr %8, align 8, !tbaa !17
  store double %75, ptr %76, align 8, !tbaa !47
  store i32 1, ptr %14, align 4
  call void @llvm.lifetime.end.p0(i64 8, ptr %11) #15
  ret i32 0
}

; Function Attrs: mustprogress uwtable
define internal noundef i32 @_ZN2cv12cpu_baselineL10normL2_16uEPKtPKhPdii(ptr noundef %0, ptr noundef %1, ptr noundef %2, i32 noundef %3, i32 noundef %4) #0 personality ptr @__gxx_personality_v0 {
  %6 = alloca ptr, align 8
  %7 = alloca ptr, align 8
  %8 = alloca ptr, align 8
  %9 = alloca i32, align 4
  %10 = alloca i32, align 4
  %11 = alloca %"class.cv::utils::trace::details::Region", align 8
  %12 = alloca ptr, align 8
  %13 = alloca i32, align 4
  store ptr %0, ptr %6, align 8, !tbaa !13
  store ptr %1, ptr %7, align 8, !tbaa !9
  store ptr %2, ptr %8, align 8, !tbaa !17
  store i32 %3, ptr %9, align 4, !tbaa !3
  store i32 %4, ptr %10, align 4, !tbaa !3
  call void @llvm.lifetime.start.p0(i64 16, ptr %11) #15
  call void @_ZN2cv5utils5trace7details6RegionC1ERKNS3_21LocationStaticStorageE(ptr noundef nonnull align 8 dereferenceable(12) %11, ptr noundef nonnull align 8 dereferenceable(32) @_ZZN2cv12cpu_baselineL10normL2_16uEPKtPKhPdiiE25__cv_trace_location_fn644)
  %14 = load ptr, ptr %6, align 8, !tbaa !13
  %15 = load ptr, ptr %7, align 8, !tbaa !9
  %16 = load ptr, ptr %8, align 8, !tbaa !17
  %17 = load i32, ptr %9, align 4, !tbaa !3
  %18 = load i32, ptr %10, align 4, !tbaa !3
  %19 = invoke noundef i32 @_ZN2cv12cpu_baseline7normL2_ItdEEiPKT_PKhPT0_ii(ptr noundef %14, ptr noundef %15, ptr noundef %16, i32 noundef %17, i32 noundef %18)
          to label %20 unwind label %21

20:                                               ; preds = %5
  call void @_ZN2cv5utils5trace7details6RegionD2Ev(ptr noundef nonnull align 8 dereferenceable(12) %11) #15
  call void @llvm.lifetime.end.p0(i64 16, ptr %11) #15
  ret i32 %19

21:                                               ; preds = %5
  %22 = landingpad { ptr, i32 }
          cleanup
  %23 = extractvalue { ptr, i32 } %22, 0
  store ptr %23, ptr %12, align 8
  %24 = extractvalue { ptr, i32 } %22, 1
  store i32 %24, ptr %13, align 4
  call void @_ZN2cv5utils5trace7details6RegionD2Ev(ptr noundef nonnull align 8 dereferenceable(12) %11) #15
  call void @llvm.lifetime.end.p0(i64 16, ptr %11) #15
  br label %25

25:                                               ; preds = %21
  %26 = load ptr, ptr %12, align 8
  %27 = load i32, ptr %13, align 4
  %28 = insertvalue { ptr, i32 } poison, ptr %26, 0
  %29 = insertvalue { ptr, i32 } %28, i32 %27, 1
  resume { ptr, i32 } %29
}