; Function Attrs: mustprogress uwtable
define internal noundef i32 @_ZN2cv12cpu_baselineL10normL2_16uEPKtPKhPdii(ptr noundef readonly captures(none) %0, ptr noundef readonly %1, ptr noundef captures(none) %2, i32 noundef %3, i32 noundef %4) #0 personality ptr @__gxx_personality_v0 {
  %6 = alloca %"class.cv::utils::trace::details::Region", align 8
  call void @llvm.lifetime.start.p0(i64 16, ptr nonnull %6) #17
  call void @_ZN2cv5utils5trace7details6RegionC1ERKNS3_21LocationStaticStorageE(ptr noundef nonnull align 8 dereferenceable(12) %6, ptr noundef nonnull align 8 dereferenceable(32) @_ZZN2cv12cpu_baselineL10normL2_16uEPKtPKhPdiiE25__cv_trace_location_fn644)
  %7 = load double, ptr %2, align 8, !tbaa !36
  %.not.i = icmp eq ptr %1, null
  br i1 %.not.i, label %18, label %.preheader27.i

.preheader27.i:                                   ; preds = %5
  %8 = icmp sgt i32 %3, 0
  br i1 %8, label %.lr.ph34.i, label %.loopexit

.lr.ph34.i:                                       ; preds = %.preheader27.i
  %9 = icmp sgt i32 %4, 0
  %10 = sext i32 %4 to i64
  br i1 %9, label %.lr.ph34.split.us.preheader.i, label %.loopexit

.lr.ph34.split.us.preheader.i:                    ; preds = %.lr.ph34.i
  %wide.trip.count42.i = zext nneg i32 %3 to i64
  %wide.trip.count.i = zext nneg i32 %4 to i64
  br label %.lr.ph34.split.us.i

.lr.ph34.split.us.i:                              ; preds = %..loopexit_crit_edge.us.i, %.lr.ph34.split.us.preheader.i
  %indvars.iv39.i = phi i64 [ 0, %.lr.ph34.split.us.preheader.i ], [ %indvars.iv.next40.i, %..loopexit_crit_edge.us.i ]
  %.033.us.i = phi ptr [ %0, %.lr.ph34.split.us.preheader.i ], [ %17, %..loopexit_crit_edge.us.i ]
  %.131.us.i = phi double [ %7, %.lr.ph34.split.us.preheader.i ], [ %.3.us.i, %..loopexit_crit_edge.us.i ]
  %11 = getelementptr inbounds nuw i8, ptr %1, i64 %indvars.iv39.i
  %12 = load i8, ptr %11, align 1, !tbaa !12
  %.not26.us.i = icmp eq i8 %12, 0
  br i1 %.not26.us.i, label %..loopexit_crit_edge.us.i, label %.preheader.us.i

.preheader.us.i:                                  ; preds = %.lr.ph34.split.us.i, %.preheader.us.i
  %indvars.iv.i = phi i64 [ %indvars.iv.next.i, %.preheader.us.i ], [ 0, %.lr.ph34.split.us.i ]
  %.229.us.i = phi double [ %16, %.preheader.us.i ], [ %.131.us.i, %.lr.ph34.split.us.i ]
  %13 = getelementptr inbounds nuw i16, ptr %.033.us.i, i64 %indvars.iv.i
  %14 = load i16, ptr %13, align 2, !tbaa !20
  %15 = uitofp i16 %14 to double
  %16 = call double @llvm.fmuladd.f64(double %15, double %15, double %.229.us.i)
  %indvars.iv.next.i = add nuw nsw i64 %indvars.iv.i, 1
  %exitcond.not.i = icmp eq i64 %indvars.iv.next.i, %wide.trip.count.i
  br i1 %exitcond.not.i, label %..loopexit_crit_edge.us.i, label %.preheader.us.i, !llvm.loop !68

..loopexit_crit_edge.us.i:                        ; preds = %.preheader.us.i, %.lr.ph34.split.us.i
  %.3.us.i = phi double [ %.131.us.i, %.lr.ph34.split.us.i ], [ %16, %.preheader.us.i ]
  %indvars.iv.next40.i = add nuw nsw i64 %indvars.iv39.i, 1
  %17 = getelementptr inbounds nuw i16, ptr %.033.us.i, i64 %10
  %exitcond43.not.i = icmp eq i64 %indvars.iv.next40.i, %wide.trip.count42.i
  br i1 %exitcond43.not.i, label %.loopexit, label %.lr.ph34.split.us.i, !llvm.loop !69

18:                                               ; preds = %5
  %19 = mul nsw i32 %4, %3
  %20 = icmp sgt i32 %19, 0
  br i1 %20, label %.lr.ph.preheader.i.i, label %_ZNK2cv12cpu_baseline11NormL2_SIMDItdEclEPKti.exit.i

.lr.ph.preheader.i.i:                             ; preds = %18
  %wide.trip.count.i.i = zext nneg i32 %19 to i64
  br label %.lr.ph.i.i

.lr.ph.i.i:                                       ; preds = %.lr.ph.i.i, %.lr.ph.preheader.i.i
  %indvars.iv.i.i = phi i64 [ 0, %.lr.ph.preheader.i.i ], [ %indvars.iv.next.i.i, %.lr.ph.i.i ]
  %.010.i.i = phi double [ 0.000000e+00, %.lr.ph.preheader.i.i ], [ %24, %.lr.ph.i.i ]
  %21 = getelementptr inbounds nuw i16, ptr %0, i64 %indvars.iv.i.i
  %22 = load i16, ptr %21, align 2, !tbaa !20
  %23 = uitofp i16 %22 to double
  %24 = call double @llvm.fmuladd.f64(double %23, double %23, double %.010.i.i)
  %indvars.iv.next.i.i = add nuw nsw i64 %indvars.iv.i.i, 1
  %exitcond.not.i.i = icmp eq i64 %indvars.iv.next.i.i, %wide.trip.count.i.i
  br i1 %exitcond.not.i.i, label %_ZNK2cv12cpu_baseline11NormL2_SIMDItdEclEPKti.exit.i, label %.lr.ph.i.i, !llvm.loop !70

_ZNK2cv12cpu_baseline11NormL2_SIMDItdEclEPKti.exit.i: ; preds = %.lr.ph.i.i, %18
  %.0.lcssa.i.i = phi double [ 0.000000e+00, %18 ], [ %24, %.lr.ph.i.i ]
  %25 = fadd double %7, %.0.lcssa.i.i
  br label %.loopexit

.loopexit:                                        ; preds = %..loopexit_crit_edge.us.i, %_ZNK2cv12cpu_baseline11NormL2_SIMDItdEclEPKti.exit.i, %.lr.ph34.i, %.preheader27.i
  %.024.i = phi double [ %25, %_ZNK2cv12cpu_baseline11NormL2_SIMDItdEclEPKti.exit.i ], [ %7, %.preheader27.i ], [ %7, %.lr.ph34.i ], [ %.3.us.i, %..loopexit_crit_edge.us.i ]
  store double %.024.i, ptr %2, align 8, !tbaa !36
  %26 = getelementptr inbounds nuw i8, ptr %6, i64 8
  %27 = load i32, ptr %26, align 8, !tbaa !7
  %.not.i6 = icmp eq i32 %27, 0
  br i1 %.not.i6, label %_ZN2cv5utils5trace7details6RegionD2Ev.exit, label %28

28:                                               ; preds = %.loopexit
  invoke void @_ZN2cv5utils5trace7details6Region7destroyEv(ptr noundef nonnull align 8 dereferenceable(12) %6)
          to label %_ZN2cv5utils5trace7details6RegionD2Ev.exit unwind label %29

29:                                               ; preds = %28
  %30 = landingpad { ptr, i32 }
          catch ptr null
  %31 = extractvalue { ptr, i32 } %30, 0
  call void @__clang_call_terminate(ptr %31) #18
  unreachable

_ZN2cv5utils5trace7details6RegionD2Ev.exit:       ; preds = %.loopexit, %28
  call void @llvm.lifetime.end.p0(i64 16, ptr nonnull %6) #17
  ret i32 0
}